target datalayout = "e-m:e-p270:32:32-p271:32:32-p272:64:64-i64:64-i128:128-f80:128-n8:16:32:64-S128"
target triple = "x86_64-pc-linux-gnu"

%class.MemRegion = type { ptr, i64 }
%class.ReservedSpace = type <{ ptr, i64, i64, i64, i64, i8, [3 x i8], i32, i8, [7 x i8] }>
%class.PSYoungGen = type { ptr, %class.MemRegion, ptr, ptr, ptr, ptr, i64, i64, ptr, ptr, ptr, ptr }

@_ZTV10PSYoungGen = hidden unnamed_addr constant { [3 x ptr] } { [3 x ptr] [ptr null, ptr null, ptr @_ZNK10PSYoungGen8print_onEP12outputStream] }, align 8
@GenAlignment = external global i64, align 8
@.str = private unnamed_addr constant [47 x i8] c"Could not reserve enough space for object heap\00", align 1

; Function Attrs: mustprogress nounwind uwtable
define linkonce_odr hidden noundef ptr @_ZNK10PSYoungGen13virtual_spaceEv(ptr noundef nonnull align 8 dereferenceable(104) %0) #1 comdat align 2 {
  %2 = alloca ptr, align 8
  store ptr %0, ptr %2, align 8
  %3 = load ptr, ptr %2, align 8
  %4 = getelementptr inbounds %class.PSYoungGen, ptr %3, i32 0, i32 2
  %5 = load ptr, ptr %4, align 8
  ret ptr %5
}

; Function Attrs: mustprogress nounwind uwtable
define hidden void @_ZN10PSYoungGen24initialize_virtual_spaceE13ReservedSpacemm(ptr noundef nonnull align 8 dereferenceable(104) %0, ptr noundef byval(%class.ReservedSpace) align 8 %1, i64 noundef %2, i64 noundef %3) #1 align 2 {
  %5 = alloca i64, align 8
  %6 = alloca i8, align 1
  %7 = alloca i64, align 8
  %8 = alloca ptr, align 8
  %9 = alloca i64, align 8
  %10 = alloca i64, align 8
  %11 = alloca %class.ReservedSpace, align 8
  store ptr %0, ptr %8, align 8
  store i64 %2, ptr %9, align 8
  store i64 %3, ptr %10, align 8
  %12 = load ptr, ptr %8, align 8
  store i64 56, ptr %7, align 8
  %13 = load i64, ptr %7, align 8
  store i64 %13, ptr %5, align 8
  store i8 5, ptr %6, align 1
  %14 = load i64, ptr %5, align 8
  %15 = load i8, ptr %6, align 1
  %16 = call noundef ptr @_Z12AllocateHeapm8MEMFLAGSN17AllocFailStrategy13AllocFailEnumE(i64 noundef %14, i8 noundef zeroext %15, i32 noundef 0) #6
  call void @llvm.memcpy.p0.p0.i64(ptr align 8 %11, ptr align 8 %1, i64 56, i1 false)
  %17 = load i64, ptr %10, align 8
  call void @_ZN14PSVirtualSpaceC1E13ReservedSpacem(ptr noundef nonnull align 8 dereferenceable(49) %16, ptr noundef byval(%class.ReservedSpace) align 8 %11, i64 noundef %17)
  %18 = getelementptr inbounds %class.PSYoungGen, ptr %12, i32 0, i32 2
  store ptr %16, ptr %18, align 8
  %19 = call noundef ptr @_ZNK10PSYoungGen13virtual_spaceEv(ptr noundef nonnull align 8 dereferenceable(104) %12)
  %20 = load i64, ptr %9, align 8
  %21 = load ptr, ptr %19, align 8
  %22 = getelementptr inbounds ptr, ptr %21, i64 0
  %23 = load ptr, ptr %22, align 8
  %24 = call noundef zeroext i1 %23(ptr noundef nonnull align 8 dereferenceable(49) %19, i64 noundef %20)
  br i1 %24, label %26, label %25

25:                                               ; preds = %4
  call void @_Z29vm_exit_during_initializationPKcS0_(ptr noundef @.str, ptr noundef null)
  br label %26

26:                                               ; preds = %25, %4
  ret void
}

; Function Attrs: mustprogress nounwind uwtable
define hidden void @_ZN10PSYoungGen10initializeE13ReservedSpacemm(ptr noundef nonnull align 8 dereferenceable(104) %0, ptr noundef byval(%class.ReservedSpace) align 8 %1, i64 noundef %2, i64 noundef %3) #1 align 2 {
  %5 = alloca ptr, align 8
  %6 = alloca i64, align 8
  %7 = alloca i64, align 8
  %8 = alloca %class.ReservedSpace, align 8
  store ptr %0, ptr %5, align 8
  store i64 %2, ptr %6, align 8
  store i64 %3, ptr %7, align 8
  %9 = load ptr, ptr %5, align 8
  call void @llvm.memcpy.p0.p0.i64(ptr align 8 %8, ptr align 8 %1, i64 56, i1 false)
  %10 = load i64, ptr %6, align 8
  %11 = load i64, ptr %7, align 8
  call void @_ZN10PSYoungGen24initialize_virtual_spaceE13ReservedSpacemm(ptr noundef nonnull align 8 dereferenceable(104) %9, ptr noundef byval(%class.ReservedSpace) align 8 %8, i64 noundef %10, i64 noundef %11)
  call void @_ZN10PSYoungGen15initialize_workEv(ptr noundef nonnull align 8 dereferenceable(104) %9)
  ret void
}

; Function Attrs: mustprogress nounwind uwtable
define linkonce_odr hidden void @_ZN9MemRegionC2Ev(ptr noundef nonnull align 8 dereferenceable(16) %0) unnamed_addr #1 comdat align 2 {
  %2 = alloca ptr, align 8
  store ptr %0, ptr %2, align 8
  %3 = load ptr, ptr %2, align 8
  %4 = getelementptr inbounds %class.MemRegion, ptr %3, i32 0, i32 0
  store ptr null, ptr %4, align 8
  %5 = getelementptr inbounds %class.MemRegion, ptr %3, i32 0, i32 1
  store i64 0, ptr %5, align 8
  ret void
}

; Function Attrs: mustprogress nounwind uwtable
define hidden void @_ZN10PSYoungGenC2E13ReservedSpacemmm(ptr noundef nonnull align 8 dereferenceable(104) %0, ptr noundef byval(%class.ReservedSpace) align 8 %1, i64 noundef %2, i64 noundef %3, i64 noundef %4) unnamed_addr #1 align 2 {
  %6 = alloca ptr, align 8
  %7 = alloca i64, align 8
  %8 = alloca i64, align 8
  %9 = alloca i64, align 8
  %10 = alloca %class.ReservedSpace, align 8
  store ptr %0, ptr %6, align 8
  store i64 %2, ptr %7, align 8
  store i64 %3, ptr %8, align 8
  store i64 %4, ptr %9, align 8
  %11 = load ptr, ptr %6, align 8
  store ptr getelementptr inbounds inrange(-16, 8) ({ [3 x ptr] }, ptr @_ZTV10PSYoungGen, i32 0, i32 0, i32 2), ptr %11, align 8
  %12 = getelementptr inbounds %class.PSYoungGen, ptr %11, i32 0, i32 1
  call void @_ZN9MemRegionC2Ev(ptr noundef nonnull align 8 dereferenceable(16) %12)
  %13 = getelementptr inbounds %class.PSYoungGen, ptr %11, i32 0, i32 2
  store ptr null, ptr %13, align 8
  %14 = getelementptr inbounds %class.PSYoungGen, ptr %11, i32 0, i32 3
  store ptr null, ptr %14, align 8
  %15 = getelementptr inbounds %class.PSYoungGen, ptr %11, i32 0, i32 4
  store ptr null, ptr %15, align 8
  %16 = getelementptr inbounds %class.PSYoungGen, ptr %11, i32 0, i32 5
  store ptr null, ptr %16, align 8
  %17 = getelementptr inbounds %class.PSYoungGen, ptr %11, i32 0, i32 6
  %18 = load i64, ptr %8, align 8
  store i64 %18, ptr %17, align 8
  %19 = getelementptr inbounds %class.PSYoungGen, ptr %11, i32 0, i32 7
  %20 = load i64, ptr %9, align 8
  store i64 %20, ptr %19, align 8
  %21 = getelementptr inbounds %class.PSYoungGen, ptr %11, i32 0, i32 8
  store ptr null, ptr %21, align 8
  %22 = getelementptr inbounds %class.PSYoungGen, ptr %11, i32 0, i32 9
  store ptr null, ptr %22, align 8
  %23 = getelementptr inbounds %class.PSYoungGen, ptr %11, i32 0, i32 10
  store ptr null, ptr %23, align 8
  %24 = getelementptr inbounds %class.PSYoungGen, ptr %11, i32 0, i32 11
  store ptr null, ptr %24, align 8
  call void @llvm.memcpy.p0.p0.i64(ptr align 8 %10, ptr align 8 %1, i64 56, i1 false)
  %25 = load i64, ptr %7, align 8
  %26 = load i64, ptr @GenAlignment, align 8
  call void @_ZN10PSYoungGen10initializeE13ReservedSpacemm(ptr noundef nonnull align 8 dereferenceable(104) %11, ptr noundef byval(%class.ReservedSpace) align 8 %10, i64 noundef %25, i64 noundef %26)
  ret void
}