; Function Attrs: mustprogress nounwind uwtable
define hidden void @_ZN10PSYoungGenC2E13ReservedSpacemmm(ptr nocapture noundef nonnull align 8 dereferenceable(104) %0, ptr nocapture noundef readonly byval(%class.ReservedSpace) align 8 %1, i64 noundef %2, i64 noundef %3, i64 noundef %4) unnamed_addr #0 align 2 {
  store ptr getelementptr inbounds inrange(-16, 8) (i8, ptr @_ZTV10PSYoungGen, i64 16), ptr %0, align 8
  %6 = getelementptr inbounds i8, ptr %0, i64 8
  %7 = getelementptr inbounds i8, ptr %0, i64 24
  %8 = getelementptr inbounds i8, ptr %0, i64 56
  tail call void @llvm.memset.p0.i64(ptr noundef nonnull align 8 dereferenceable(48) %6, i8 0, i64 48, i1 false)
  store i64 %3, ptr %8, align 8
  %9 = getelementptr inbounds i8, ptr %0, i64 64
  store i64 %4, ptr %9, align 8
  %10 = getelementptr inbounds i8, ptr %0, i64 72
  tail call void @llvm.memset.p0.i64(ptr noundef nonnull align 8 dereferenceable(32) %10, i8 0, i64 32, i1 false)
  %11 = load i64, ptr @GenAlignment, align 8
  %12 = tail call noundef ptr @_Z12AllocateHeapm8MEMFLAGSN17AllocFailStrategy13AllocFailEnumE(i64 noundef 56, i8 noundef zeroext 5, i32 noundef 0) #9
  tail call void @_ZN14PSVirtualSpaceC1E13ReservedSpacem(ptr noundef nonnull align 8 dereferenceable(49) %12, ptr noundef nonnull byval(%class.ReservedSpace) align 8 %1, i64 noundef %11) #9
  store ptr %12, ptr %7, align 8
  %13 = load ptr, ptr %12, align 8
  %14 = load ptr, ptr %13, align 8
  %15 = tail call noundef zeroext i1 %14(ptr noundef nonnull align 8 dereferenceable(49) %12, i64 noundef %2) #9
  br i1 %15, label %_ZN10PSYoungGen10initializeE13ReservedSpacemm.exit, label %16

16:                                               ; preds = %5
  tail call void @_Z29vm_exit_during_initializationPKcS0_(ptr noundef nonnull @.str, ptr noundef null) #9
  br label %_ZN10PSYoungGen10initializeE13ReservedSpacemm.exit

_ZN10PSYoungGen10initializeE13ReservedSpacemm.exit: ; preds = %5, %16
  tail call void @_ZN10PSYoungGen15initialize_workEv(ptr noundef nonnull align 8 dereferenceable(104) %0)
  ret void
}